target datalayout = "e-m:e-p270:32:32-p271:32:32-p272:64:64-i64:64-i128:128-f80:128-n8:16:32:64-S128"
target triple = "x86_64-pc-linux-gnu"

; Function Attrs: nounwind uwtable
define hidden void @SDL_DelayPrecise_REAL(i64 noundef %0) #0 {
  %2 = alloca i64, align 8
  %3 = alloca i64, align 8
  %4 = alloca i64, align 8
  %5 = alloca i64, align 8
  %6 = alloca i64, align 8
  %7 = alloca i64, align 8
  %8 = alloca i64, align 8
  %9 = alloca i64, align 8
  store i64 %0, ptr %2, align 8
  call void @llvm.lifetime.start.p0(i64 8, ptr %3) #3
  %10 = call i64 @SDL_GetTicksNS_REAL()
  store i64 %10, ptr %3, align 8
  call void @llvm.lifetime.start.p0(i64 8, ptr %4) #3
  %11 = load i64, ptr %3, align 8
  %12 = load i64, ptr %2, align 8
  %13 = add i64 %11, %12
  store i64 %13, ptr %4, align 8
  call void @llvm.lifetime.start.p0(i64 8, ptr %5) #3
  store i64 1000000, ptr %5, align 8
  call void @llvm.lifetime.start.p0(i64 8, ptr %6) #3
  store i64 1000000, ptr %6, align 8
  br label %14

14:                                               ; preds = %30, %1
  %15 = load i64, ptr %3, align 8
  %16 = load i64, ptr %6, align 8
  %17 = add i64 %15, %16
  %18 = load i64, ptr %4, align 8
  %19 = icmp ult i64 %17, %18
  br i1 %19, label %20, label %32

20:                                               ; preds = %14
  call void @SDL_SYS_DelayNS(i64 noundef 1000000)
  call void @llvm.lifetime.start.p0(i64 8, ptr %7) #3
  %21 = call i64 @SDL_GetTicksNS_REAL()
  store i64 %21, ptr %7, align 8
  call void @llvm.lifetime.start.p0(i64 8, ptr %8) #3
  %22 = load i64, ptr %7, align 8
  %23 = load i64, ptr %3, align 8
  %24 = sub i64 %22, %23
  store i64 %24, ptr %8, align 8
  %25 = load i64, ptr %8, align 8
  %26 = load i64, ptr %6, align 8
  %27 = icmp ugt i64 %25, %26
  br i1 %27, label %28, label %30

28:                                               ; preds = %20
  %29 = load i64, ptr %8, align 8
  store i64 %29, ptr %6, align 8
  br label %30

30:                                               ; preds = %28, %20
  %31 = load i64, ptr %7, align 8
  store i64 %31, ptr %3, align 8
  call void @llvm.lifetime.end.p0(i64 8, ptr %8) #3
  call void @llvm.lifetime.end.p0(i64 8, ptr %7) #3
  br label %14, !llvm.loop !12

32:                                               ; preds = %14
  %33 = load i64, ptr %3, align 8
  %34 = load i64, ptr %4, align 8
  %35 = icmp ult i64 %33, %34
  br i1 %35, label %36, label %52

36:                                               ; preds = %32
  %37 = load i64, ptr %4, align 8
  %38 = load i64, ptr %3, align 8
  %39 = sub i64 %37, %38
  %40 = load i64, ptr %6, align 8
  %41 = sub i64 %40, 1000000
  %42 = icmp ugt i64 %39, %41
  br i1 %42, label %43, label %52

43:                                               ; preds = %36
  call void @llvm.lifetime.start.p0(i64 8, ptr %9) #3
  %44 = load i64, ptr %4, align 8
  %45 = load i64, ptr %3, align 8
  %46 = sub i64 %44, %45
  %47 = load i64, ptr %6, align 8
  %48 = sub i64 %47, 1000000
  %49 = sub i64 %46, %48
  store i64 %49, ptr %9, align 8
  %50 = load i64, ptr %9, align 8
  call void @SDL_SYS_DelayNS(i64 noundef %50)
  %51 = call i64 @SDL_GetTicksNS_REAL()
  store i64 %51, ptr %3, align 8
  call void @llvm.lifetime.end.p0(i64 8, ptr %9) #3
  br label %52

52:                                               ; preds = %43, %36, %32
  br label %53

53:                                               ; preds = %58, %52
  %54 = load i64, ptr %3, align 8
  %55 = add i64 %54, 1000000
  %56 = load i64, ptr %4, align 8
  %57 = icmp ult i64 %55, %56
  br i1 %57, label %58, label %60

58:                                               ; preds = %53
  call void @SDL_SYS_DelayNS(i64 noundef 1000000)
  %59 = call i64 @SDL_GetTicksNS_REAL()
  store i64 %59, ptr %3, align 8
  br label %53, !llvm.loop !13

60:                                               ; preds = %53
  br label %61

61:                                               ; preds = %65, %60
  %62 = load i64, ptr %3, align 8
  %63 = load i64, ptr %4, align 8
  %64 = icmp ult i64 %62, %63
  br i1 %64, label %65, label %67

65:                                               ; preds = %61
  call void asm sideeffect "pause\0A", "~{dirflag},~{fpsr},~{flags}"() #3, !srcloc !14
  %66 = call i64 @SDL_GetTicksNS_REAL()
  store i64 %66, ptr %3, align 8
  br label %61, !llvm.loop !15

67:                                               ; preds = %61
  call void @llvm.lifetime.end.p0(i64 8, ptr %6) #3
  call void @llvm.lifetime.end.p0(i64 8, ptr %5) #3
  call void @llvm.lifetime.end.p0(i64 8, ptr %4) #3
  call void @llvm.lifetime.end.p0(i64 8, ptr %3) #3
  ret void
}