; Function Attrs: nounwind uwtable
define hidden void @SDL_DelayPrecise_REAL(i64 noundef %0) local_unnamed_addr #0 {
  %2 = tail call i64 @SDL_GetTicksNS_REAL()
  %3 = add i64 %2, %0
  %4 = add i64 %2, 1000000
  %5 = icmp ult i64 %4, %3
  br i1 %5, label %.lr.ph, label %._crit_edge

.lr.ph:                                           ; preds = %1, %.lr.ph
  %.031 = phi i64 [ %6, %.lr.ph ], [ %2, %1 ]
  %.02430 = phi i64 [ %spec.select, %.lr.ph ], [ 1000000, %1 ]
  tail call void @SDL_SYS_DelayNS(i64 noundef 1000000) #3
  %6 = tail call i64 @SDL_GetTicksNS_REAL()
  %7 = sub i64 %6, %.031
  %spec.select = tail call i64 @llvm.umax.i64(i64 %7, i64 %.02430)
  %8 = add i64 %6, %spec.select
  %9 = icmp ult i64 %8, %3
  br i1 %9, label %.lr.ph, label %._crit_edge.loopexit, !llvm.loop !11

._crit_edge.loopexit:                             ; preds = %.lr.ph
  %10 = add i64 %spec.select, -1000000
  br label %._crit_edge

._crit_edge:                                      ; preds = %._crit_edge.loopexit, %1
  %.024.lcssa = phi i64 [ 0, %1 ], [ %10, %._crit_edge.loopexit ]
  %.0.lcssa = phi i64 [ %2, %1 ], [ %6, %._crit_edge.loopexit ]
  %11 = icmp ult i64 %.0.lcssa, %3
  br i1 %11, label %12, label %18

12:                                               ; preds = %._crit_edge
  %13 = sub nuw i64 %3, %.0.lcssa
  %14 = icmp ugt i64 %13, %.024.lcssa
  br i1 %14, label %15, label %18

15:                                               ; preds = %12
  %16 = sub nuw i64 %13, %.024.lcssa
  tail call void @SDL_SYS_DelayNS(i64 noundef %16) #3
  %17 = tail call i64 @SDL_GetTicksNS_REAL()
  br label %18

18:                                               ; preds = %15, %12, %._crit_edge
  %.1 = phi i64 [ %17, %15 ], [ %.0.lcssa, %12 ], [ %.0.lcssa, %._crit_edge ]
  %19 = add i64 %.1, 1000000
  %20 = icmp ult i64 %19, %3
  br i1 %20, label %.lr.ph34, label %.preheader

.preheader:                                       ; preds = %.lr.ph34, %18
  %.2.lcssa = phi i64 [ %.1, %18 ], [ %22, %.lr.ph34 ]
  %21 = icmp ult i64 %.2.lcssa, %3
  br i1 %21, label %.lr.ph36, label %._crit_edge37

.lr.ph34:                                         ; preds = %18, %.lr.ph34
  tail call void @SDL_SYS_DelayNS(i64 noundef 1000000) #3
  %22 = tail call i64 @SDL_GetTicksNS_REAL()
  %23 = add i64 %22, 1000000
  %24 = icmp ult i64 %23, %3
  br i1 %24, label %.lr.ph34, label %.preheader, !llvm.loop !12

.lr.ph36:                                         ; preds = %.preheader, %.lr.ph36
  tail call void asm sideeffect "pause\0A", "~{dirflag},~{fpsr},~{flags}"() #3, !srcloc !13
  %25 = tail call i64 @SDL_GetTicksNS_REAL()
  %26 = icmp ult i64 %25, %3
  br i1 %26, label %.lr.ph36, label %._crit_edge37, !llvm.loop !14

._crit_edge37:                                    ; preds = %.lr.ph36, %.preheader
  ret void
}